target datalayout = "e-m:e-p270:32:32-p271:32:32-p272:64:64-i64:64-i128:128-f80:128-n8:16:32:64-S128"
target triple = "x86_64-pc-linux-gnu"

%struct.MMSContext = type { ptr, ptr, ptr, [512 x i8], [65536 x i8], ptr, i32, ptr, i32, i32, i32, i32, i32, i32 }

; Function Attrs: nounwind uwtable
define i32 @ff_mms_read_data(ptr noundef %0, ptr noundef %1, i32 noundef %2) #0 {
  %4 = alloca ptr, align 8
  %5 = alloca ptr, align 8
  %6 = alloca i32, align 4
  %7 = alloca i32, align 4
  store ptr %0, ptr %4, align 8, !tbaa !4
  store ptr %1, ptr %5, align 8, !tbaa !9
  store i32 %2, ptr %6, align 4, !tbaa !11
  call void @llvm.lifetime.start.p0(i64 4, ptr %7) #5
  %8 = load i32, ptr %6, align 4, !tbaa !11
  %9 = load ptr, ptr %4, align 8, !tbaa !4
  %10 = getelementptr inbounds nuw %struct.MMSContext, ptr %9, i32 0, i32 6
  %11 = load i32, ptr %10, align 8, !tbaa !19
  %12 = icmp sgt i32 %8, %11
  br i1 %12, label %13, label %17

13:                                               ; preds = %3
  %14 = load ptr, ptr %4, align 8, !tbaa !4
  %15 = getelementptr inbounds nuw %struct.MMSContext, ptr %14, i32 0, i32 6
  %16 = load i32, ptr %15, align 8, !tbaa !19
  br label %19

17:                                               ; preds = %3
  %18 = load i32, ptr %6, align 4, !tbaa !11
  br label %19

19:                                               ; preds = %17, %13
  %20 = phi i32 [ %16, %13 ], [ %18, %17 ]
  store i32 %20, ptr %7, align 4, !tbaa !11
  %21 = load ptr, ptr %5, align 8, !tbaa !9
  %22 = load ptr, ptr %4, align 8, !tbaa !4
  %23 = getelementptr inbounds nuw %struct.MMSContext, ptr %22, i32 0, i32 5
  %24 = load ptr, ptr %23, align 8, !tbaa !20
  %25 = load i32, ptr %7, align 4, !tbaa !11
  %26 = sext i32 %25 to i64
  call void @llvm.memcpy.p0.p0.i64(ptr align 1 %21, ptr align 1 %24, i64 %26, i1 false)
  %27 = load i32, ptr %7, align 4, !tbaa !11
  %28 = load ptr, ptr %4, align 8, !tbaa !4
  %29 = getelementptr inbounds nuw %struct.MMSContext, ptr %28, i32 0, i32 6
  %30 = load i32, ptr %29, align 8, !tbaa !19
  %31 = sub nsw i32 %30, %27
  store i32 %31, ptr %29, align 8, !tbaa !19
  %32 = load i32, ptr %7, align 4, !tbaa !11
  %33 = load ptr, ptr %4, align 8, !tbaa !4
  %34 = getelementptr inbounds nuw %struct.MMSContext, ptr %33, i32 0, i32 5
  %35 = load ptr, ptr %34, align 8, !tbaa !20
  %36 = sext i32 %32 to i64
  %37 = getelementptr inbounds i8, ptr %35, i64 %36
  store ptr %37, ptr %34, align 8, !tbaa !20
  %38 = load i32, ptr %7, align 4, !tbaa !11
  call void @llvm.lifetime.end.p0(i64 4, ptr %7) #5
  ret i32 %38
}