; Function Attrs: mustprogress nofree norecurse nosync nounwind willreturn memory(readwrite, inaccessiblemem: none) uwtable
define i32 @ff_mms_read_data(ptr noundef captures(none) %0, ptr noundef writeonly captures(none) %1, i32 noundef %2) local_unnamed_addr #3 {
  %4 = getelementptr inbounds nuw i8, ptr %0, i64 66080
  %5 = load i32, ptr %4, align 8, !tbaa !15
  %. = tail call i32 @llvm.smin.i32(i32 %2, i32 %5)
  %6 = getelementptr inbounds nuw i8, ptr %0, i64 66072
  %7 = load ptr, ptr %6, align 8, !tbaa !16
  %8 = sext i32 %. to i64
  tail call void @llvm.memcpy.p0.p0.i64(ptr align 1 %1, ptr align 1 %7, i64 %8, i1 false)
  %9 = load i32, ptr %4, align 8, !tbaa !15
  %10 = sub nsw i32 %9, %.
  store i32 %10, ptr %4, align 8, !tbaa !15
  %11 = load ptr, ptr %6, align 8, !tbaa !16
  %12 = getelementptr inbounds i8, ptr %11, i64 %8
  store ptr %12, ptr %6, align 8, !tbaa !16
  ret i32 %.
}